ccopy_reg
_reconstructor
p0
(cnltk.classify.naivebayes
NaiveBayesClassifier
p1
c__builtin__
object
p2
Ntp3
Rp4
(dp5
S'_labels'
p6
(lp7
S'comSc'
p8
aS'art'
p9
asS'_feature_probdist'
p10
(dp11
(g9
S'|'
p12
tp13
g0
(cnltk.probability
ELEProbDist
p14
g2
Ntp15
Rp16
(dp17
S'_gamma'
p18
F0.5
sS'_N'
p19
I878
sS'_freqdist'
p20
cnltk.probability
FreqDist
p21
((dp22
I00
I878
stp23
Rp24
sS'_bins'
p25
I2
sS'_divisor'
p26
F879.0
sbs(g8
S't'
p27
tp28
g0
(g14
g2
Ntp29
Rp30
(dp31
g18
F0.5
sg19
I122
sg20
g21
((dp32
I01
I122
stp33
Rp34
sg25
I2
sg26
F123.0
sbs(g9
S'n'
p35
tp36
g0
(g14
g2
Ntp37
Rp38
(dp39
g18
F0.5
sg19
I878
sg20
g21
((dp40
I01
I878
stp41
Rp42
sg25
I1
sg26
F878.5
sbs(g8
S'-'
p43
tp44
g0
(g14
g2
Ntp45
Rp46
(dp47
g18
F0.5
sg19
I122
sg20
g21
((dp48
I01
I122
stp49
Rp50
sg25
I2
sg26
F123.0
sbs(g8
S'r'
p51
tp52
g0
(g14
g2
Ntp53
Rp54
(dp55
g18
F0.5
sg19
I122
sg20
g21
((dp56
I01
I122
stp57
Rp58
sg25
I2
sg26
F123.0
sbs(g9
S'1'
p59
tp60
g0
(g14
g2
Ntp61
Rp62
(dp63
g18
F0.5
sg19
I878
sg20
g21
((dp64
I01
I878
stp65
Rp66
sg25
I1
sg26
F878.5
sbs(g9
S'v'
p67
tp68
g0
(g14
g2
Ntp69
Rp70
(dp71
g18
F0.5
sg19
I878
sg20
g21
((dp72
I01
I878
stp73
Rp74
sg25
I1
sg26
F878.5
sbs(g8
S'w'
p75
tp76
g0
(g14
g2
Ntp77
Rp78
(dp79
g18
F0.5
sg19
I122
sg20
g21
((dp80
I01
I122
stp81
Rp82
sg25
I2
sg26
F123.0
sbs(g9
S'g'
p83
tp84
g0
(g14
g2
Ntp85
Rp86
(dp87
g18
F0.5
sg19
I878
sg20
g21
((dp88
I00
I351
sI01
I527
stp89
Rp90
sg25
I2
sg26
F879.0
sbs(g9
S'2'
p91
tp92
g0
(g14
g2
Ntp93
Rp94
(dp95
g18
F0.5
sg19
I878
sg20
g21
((dp96
I00
I1
sI01
I877
stp97
Rp98
sg25
I2
sg26
F879.0
sbs(g9
S'i'
p99
tp100
g0
(g14
g2
Ntp101
Rp102
(dp103
g18
F0.5
sg19
I878
sg20
g21
((dp104
I00
I220
sI01
I658
stp105
Rp106
sg25
I2
sg26
F879.0
sbs(g8
S','
p107
tp108
g0
(g14
g2
Ntp109
Rp110
(dp111
g18
F0.5
sg19
I122
sg20
g21
((dp112
I01
I122
stp113
Rp114
sg25
I1
sg26
F122.5
sbs(g9
S'm'
p115
tp116
g0
(g14
g2
Ntp117
Rp118
(dp119
g18
F0.5
sg19
I878
sg20
g21
((dp120
I01
I878
stp121
Rp122
sg25
I1
sg26
F878.5
sbs(g9
S'8'
p123
tp124
g0
(g14
g2
Ntp125
Rp126
(dp127
g18
F0.5
sg19
I878
sg20
g21
((dp128
I00
I2
sI01
I876
stp129
Rp130
sg25
I2
sg26
F879.0
sbs(g9
S'~'
p131
tp132
g0
(g14
g2
Ntp133
Rp134
(dp135
g18
F0.5
sg19
I878
sg20
g21
((dp136
I00
I229
sI01
I649
stp137
Rp138
sg25
I2
sg26
F879.0
sbs(g9
S'5'
p139
tp140
g0
(g14
g2
Ntp141
Rp142
(dp143
g18
F0.5
sg19
I878
sg20
g21
((dp144
I00
I2
sI01
I876
stp145
Rp146
sg25
I2
sg26
F879.0
sbs(g9
S'\x00'
p147
tp148
g0
(g14
g2
Ntp149
Rp150
(dp151
g18
F0.5
sg19
I878
sg20
g21
((dp152
I00
I878
stp153
Rp154
sg25
I1
sg26
F878.5
sbs(g8
S'f'
p155
tp156
g0
(g14
g2
Ntp157
Rp158
(dp159
g18
F0.5
sg19
I122
sg20
g21
((dp160
I01
I122
stp161
Rp162
sg25
I2
sg26
F123.0
sbs(g9
S'h'
p163
tp164
g0
(g14
g2
Ntp165
Rp166
(dp167
g18
F0.5
sg19
I878
sg20
g21
((dp168
I00
I837
sI01
I41
stp169
Rp170
sg25
I2
sg26
F879.0
sbs(g8
S'/'
p171
tp172
g0
(g14
g2
Ntp173
Rp174
(dp175
g18
F0.5
sg19
I122
sg20
g21
((dp176
I01
I122
stp177
Rp178
sg25
I2
sg26
F123.0
sbs(g9
S'k'
p179
tp180
g0
(g14
g2
Ntp181
Rp182
(dp183
g18
F0.5
sg19
I878
sg20
g21
((dp184
I00
I135
sI01
I743
stp185
Rp186
sg25
I2
sg26
F879.0
sbs(g9
S'y'
p187
tp188
g0
(g14
g2
Ntp189
Rp190
(dp191
g18
F0.5
sg19
I878
sg20
g21
((dp192
I00
I146
sI01
I732
stp193
Rp194
sg25
I2
sg26
F879.0
sbs(g9
S'4'
p195
tp196
g0
(g14
g2
Ntp197
Rp198
(dp199
g18
F0.5
sg19
I878
sg20
g21
((dp200
I00
I2
sI01
I876
stp201
Rp202
sg25
I2
sg26
F879.0
sbs(g8
S'c'
p203
tp204
g0
(g14
g2
Ntp205
Rp206
(dp207
g18
F0.5
sg19
I122
sg20
g21
((dp208
I01
I122
stp209
Rp210
sg25
I2
sg26
F123.0
sbs(g8
S'.'
p211
tp212
g0
(g14
g2
Ntp213
Rp214
(dp215
g18
F0.5
sg19
I122
sg20
g21
((dp216
I01
I122
stp217
Rp218
sg25
I1
sg26
F122.5
sbs(g8
S'p'
p219
tp220
g0
(g14
g2
Ntp221
Rp222
(dp223
g18
F0.5
sg19
I122
sg20
g21
((dp224
I01
I122
stp225
Rp226
sg25
I2
sg26
F123.0
sbs(g9
S'7'
p227
tp228
g0
(g14
g2
Ntp229
Rp230
(dp231
g18
F0.5
sg19
I878
sg20
g21
((dp232
I00
I2
sI01
I876
stp233
Rp234
sg25
I2
sg26
F879.0
sbs(g9
S'j'
p235
tp236
g0
(g14
g2
Ntp237
Rp238
(dp239
g18
F0.5
sg19
I878
sg20
g21
((dp240
I00
I837
sI01
I41
stp241
Rp242
sg25
I2
sg26
F879.0
sbs(g8
S's'
p243
tp244
g0
(g14
g2
Ntp245
Rp246
(dp247
g18
F0.5
sg19
I122
sg20
g21
((dp248
I01
I122
stp249
Rp250
sg25
I2
sg26
F123.0
sbs(g9
S'6'
p251
tp252
g0
(g14
g2
Ntp253
Rp254
(dp255
g18
F0.5
sg19
I878
sg20
g21
((dp256
I00
I2
sI01
I876
stp257
Rp258
sg25
I2
sg26
F879.0
sbs(g8
g187
tp259
g0
(g14
g2
Ntp260
Rp261
(dp262
g18
F0.5
sg19
I122
sg20
g21
((dp263
I01
I122
stp264
Rp265
sg25
I2
sg26
F123.0
sbs(g9
g51
tp266
g0
(g14
g2
Ntp267
Rp268
(dp269
g18
F0.5
sg19
I878
sg20
g21
((dp270
I00
I265
sI01
I613
stp271
Rp272
sg25
I2
sg26
F879.0
sbs(g9
S'z'
p273
tp274
g0
(g14
g2
Ntp275
Rp276
(dp277
g18
F0.5
sg19
I878
sg20
g21
((dp278
I00
I878
stp279
Rp280
sg25
I1
sg26
F878.5
sbs(g8
S'9'
p281
tp282
g0
(g14
g2
Ntp283
Rp284
(dp285
g18
F0.5
sg19
I122
sg20
g21
((dp286
I01
I122
stp287
Rp288
sg25
I2
sg26
F123.0
sbs(g8
S'\\'
p289
tp290
g0
(g14
g2
Ntp291
Rp292
(dp293
g18
F0.5
sg19
I122
sg20
g21
((dp294
I01
I122
stp295
Rp296
sg25
I2
sg26
F123.0
sbs(g8
S'+'
p297
tp298
g0
(g14
g2
Ntp299
Rp300
(dp301
g18
F0.5
sg19
I122
sg20
g21
((dp302
I01
I122
stp303
Rp304
sg25
I2
sg26
F123.0
sbs(g8
g115
tp305
g0
(g14
g2
Ntp306
Rp307
(dp308
g18
F0.5
sg19
I122
sg20
g21
((dp309
I01
I122
stp310
Rp311
sg25
I1
sg26
F122.5
sbs(g9
S'0'
p312
tp313
g0
(g14
g2
Ntp314
Rp315
(dp316
g18
F0.5
sg19
I878
sg20
g21
((dp317
I00
I157
sI01
I721
stp318
Rp319
sg25
I2
sg26
F879.0
sbs(g9
S'e'
p320
tp321
g0
(g14
g2
Ntp322
Rp323
(dp324
g18
F0.5
sg19
I878
sg20
g21
((dp325
I00
I4
sI01
I874
stp326
Rp327
sg25
I2
sg26
F879.0
sbs(g8
g123
tp328
g0
(g14
g2
Ntp329
Rp330
(dp331
g18
F0.5
sg19
I122
sg20
g21
((dp332
I01
I122
stp333
Rp334
sg25
I2
sg26
F123.0
sbs(g9
g155
tp335
g0
(g14
g2
Ntp336
Rp337
(dp338
g18
F0.5
sg19
I878
sg20
g21
((dp339
I00
I239
sI01
I639
stp340
Rp341
sg25
I2
sg26
F879.0
sbs(g9
S'x'
p342
tp343
g0
(g14
g2
Ntp344
Rp345
(dp346
g18
F0.5
sg19
I878
sg20
g21
((dp347
I01
I878
stp348
Rp349
sg25
I1
sg26
F878.5
sbs(g9
S'='
p350
tp351
g0
(g14
g2
Ntp352
Rp353
(dp354
g18
F0.5
sg19
I878
sg20
g21
((dp355
I00
I133
sI01
I745
stp356
Rp357
sg25
I2
sg26
F879.0
sbs(g8
S'_'
p358
tp359
g0
(g14
g2
Ntp360
Rp361
(dp362
g18
F0.5
sg19
I122
sg20
g21
((dp363
I00
I122
stp364
Rp365
sg25
I1
sg26
F122.5
sbs(g8
S'*'
p366
tp367
g0
(g14
g2
Ntp368
Rp369
(dp370
g18
F0.5
sg19
I122
sg20
g21
((dp371
I00
I61
sI01
I61
stp372
Rp373
sg25
I2
sg26
F123.0
sbs(g9
g203
tp374
g0
(g14
g2
Ntp375
Rp376
(dp377
g18
F0.5
sg19
I878
sg20
g21
((dp378
I00
I190
sI01
I688
stp379
Rp380
sg25
I2
sg26
F879.0
sbs(g8
S'd'
p381
tp382
g0
(g14
g2
Ntp383
Rp384
(dp385
g18
F0.5
sg19
I122
sg20
g21
((dp386
I01
I122
stp387
Rp388
sg25
I2
sg26
F123.0
sbs(g8
S'l'
p389
tp390
g0
(g14
g2
Ntp391
Rp392
(dp393
g18
F0.5
sg19
I122
sg20
g21
((dp394
I01
I122
stp395
Rp396
sg25
I1
sg26
F122.5
sbs(g9
S'3'
p397
tp398
g0
(g14
g2
Ntp399
Rp400
(dp401
g18
F0.5
sg19
I878
sg20
g21
((dp402
I00
I1
sI01
I877
stp403
Rp404
sg25
I2
sg26
F879.0
sbs(g8
S'a'
p405
tp406
g0
(g14
g2
Ntp407
Rp408
(dp409
g18
F0.5
sg19
I122
sg20
g21
((dp410
I01
I122
stp411
Rp412
sg25
I1
sg26
F122.5
sbs(g9
g43
tp413
g0
(g14
g2
Ntp414
Rp415
(dp416
g18
F0.5
sg19
I878
sg20
g21
((dp417
I00
I24
sI01
I854
stp418
Rp419
sg25
I2
sg26
F879.0
sbs(g8
S'b'
p420
tp421
g0
(g14
g2
Ntp422
Rp423
(dp424
g18
F0.5
sg19
I122
sg20
g21
((dp425
I01
I122
stp426
Rp427
sg25
I2
sg26
F123.0
sbs(g9
S'u'
p428
tp429
g0
(g14
g2
Ntp430
Rp431
(dp432
g18
F0.5
sg19
I878
sg20
g21
((dp433
I00
I229
sI01
I649
stp434
Rp435
sg25
I2
sg26
F879.0
sbs(g8
S'o'
p436
tp437
g0
(g14
g2
Ntp438
Rp439
(dp440
g18
F0.5
sg19
I122
sg20
g21
((dp441
I01
I122
stp442
Rp443
sg25
I2
sg26
F123.0
sbs(g8
S':'
p444
tp445
g0
(g14
g2
Ntp446
Rp447
(dp448
g18
F0.5
sg19
I122
sg20
g21
((dp449
I01
I122
stp450
Rp451
sg25
I1
sg26
F122.5
sbs(g8
S"'"
p452
tp453
g0
(g14
g2
Ntp454
Rp455
(dp456
g18
F0.5
sg19
I122
sg20
g21
((dp457
I01
I122
stp458
Rp459
sg25
I2
sg26
F123.0
sbs(g9
g107
tp460
g0
(g14
g2
Ntp461
Rp462
(dp463
g18
F0.5
sg19
I878
sg20
g21
((dp464
I01
I878
stp465
Rp466
sg25
I1
sg26
F878.5
sbs(g8
g12
tp467
g0
(g14
g2
Ntp468
Rp469
(dp470
g18
F0.5
sg19
I122
sg20
g21
((dp471
I00
I61
sI01
I61
stp472
Rp473
sg25
I2
sg26
F123.0
sbs(g8
g35
tp474
g0
(g14
g2
Ntp475
Rp476
(dp477
g18
F0.5
sg19
I122
sg20
g21
((dp478
I01
I122
stp479
Rp480
sg25
I1
sg26
F122.5
sbs(g8
g139
tp481
g0
(g14
g2
Ntp482
Rp483
(dp484
g18
F0.5
sg19
I122
sg20
g21
((dp485
I01
I122
stp486
Rp487
sg25
I2
sg26
F123.0
sbs(g8
g147
tp488
g0
(g14
g2
Ntp489
Rp490
(dp491
g18
F0.5
sg19
I122
sg20
g21
((dp492
I00
I122
stp493
Rp494
sg25
I1
sg26
F122.5
sbs(g9
g171
tp495
g0
(g14
g2
Ntp496
Rp497
(dp498
g18
F0.5
sg19
I878
sg20
g21
((dp499
I00
I94
sI01
I784
stp500
Rp501
sg25
I2
sg26
F879.0
sbs(g9
g75
tp502
g0
(g14
g2
Ntp503
Rp504
(dp505
g18
F0.5
sg19
I878
sg20
g21
((dp506
I00
I254
sI01
I624
stp507
Rp508
sg25
I2
sg26
F879.0
sbs(g8
S'q'
p509
tp510
g0
(g14
g2
Ntp511
Rp512
(dp513
g18
F0.5
sg19
I122
sg20
g21
((dp514
I01
I122
stp515
Rp516
sg25
I2
sg26
F123.0
sbs(g9
g405
tp517
g0
(g14
g2
Ntp518
Rp519
(dp520
g18
F0.5
sg19
I878
sg20
g21
((dp521
I01
I878
stp522
Rp523
sg25
I1
sg26
F878.5
sbs(g8
g195
tp524
g0
(g14
g2
Ntp525
Rp526
(dp527
g18
F0.5
sg19
I122
sg20
g21
((dp528
I01
I122
stp529
Rp530
sg25
I2
sg26
F123.0
sbs(g9
g219
tp531
g0
(g14
g2
Ntp532
Rp533
(dp534
g18
F0.5
sg19
I878
sg20
g21
((dp535
I00
I149
sI01
I729
stp536
Rp537
sg25
I2
sg26
F879.0
sbs(g9
g211
tp538
g0
(g14
g2
Ntp539
Rp540
(dp541
g18
F0.5
sg19
I878
sg20
g21
((dp542
I01
I878
stp543
Rp544
sg25
I1
sg26
F878.5
sbs(g8
g131
tp545
g0
(g14
g2
Ntp546
Rp547
(dp548
g18
F0.5
sg19
I122
sg20
g21
((dp549
I01
I122
stp550
Rp551
sg25
I2
sg26
F123.0
sbs(g9
g366
tp552
g0
(g14
g2
Ntp553
Rp554
(dp555
g18
F0.5
sg19
I878
sg20
g21
((dp556
I00
I878
stp557
Rp558
sg25
I2
sg26
F879.0
sbs(g8
g163
tp559
g0
(g14
g2
Ntp560
Rp561
(dp562
g18
F0.5
sg19
I122
sg20
g21
((dp563
I01
I122
stp564
Rp565
sg25
I2
sg26
F123.0
sbs(g8
g227
tp566
g0
(g14
g2
Ntp567
Rp568
(dp569
g18
F0.5
sg19
I122
sg20
g21
((dp570
I01
I122
stp571
Rp572
sg25
I2
sg26
F123.0
sbs(g8
g350
tp573
g0
(g14
g2
Ntp574
Rp575
(dp576
g18
F0.5
sg19
I122
sg20
g21
((dp577
I01
I122
stp578
Rp579
sg25
I2
sg26
F123.0
sbs(g9
g509
tp580
g0
(g14
g2
Ntp581
Rp582
(dp583
g18
F0.5
sg19
I878
sg20
g21
((dp584
I00
I837
sI01
I41
stp585
Rp586
sg25
I2
sg26
F879.0
sbs(g9
g381
tp587
g0
(g14
g2
Ntp588
Rp589
(dp590
g18
F0.5
sg19
I878
sg20
g21
((dp591
I00
I7
sI01
I871
stp592
Rp593
sg25
I2
sg26
F879.0
sbs(g8
g67
tp594
g0
(g14
g2
Ntp595
Rp596
(dp597
g18
F0.5
sg19
I122
sg20
g21
((dp598
I01
I122
stp599
Rp600
sg25
I1
sg26
F122.5
sbs(g8
g179
tp601
g0
(g14
g2
Ntp602
Rp603
(dp604
g18
F0.5
sg19
I122
sg20
g21
((dp605
I01
I122
stp606
Rp607
sg25
I2
sg26
F123.0
sbs(g8
g251
tp608
g0
(g14
g2
Ntp609
Rp610
(dp611
g18
F0.5
sg19
I122
sg20
g21
((dp612
I01
I122
stp613
Rp614
sg25
I2
sg26
F123.0
sbs(g8
g99
tp615
g0
(g14
g2
Ntp616
Rp617
(dp618
g18
F0.5
sg19
I122
sg20
g21
((dp619
I01
I122
stp620
Rp621
sg25
I2
sg26
F123.0
sbs(g9
g420
tp622
g0
(g14
g2
Ntp623
Rp624
(dp625
g18
F0.5
sg19
I878
sg20
g21
((dp626
I00
I52
sI01
I826
stp627
Rp628
sg25
I2
sg26
F879.0
sbs(g8
g59
tp629
g0
(g14
g2
Ntp630
Rp631
(dp632
g18
F0.5
sg19
I122
sg20
g21
((dp633
I01
I122
stp634
Rp635
sg25
I1
sg26
F122.5
sbs(g8
g342
tp636
g0
(g14
g2
Ntp637
Rp638
(dp639
g18
F0.5
sg19
I122
sg20
g21
((dp640
I01
I122
stp641
Rp642
sg25
I1
sg26
F122.5
sbs(g8
g83
tp643
g0
(g14
g2
Ntp644
Rp645
(dp646
g18
F0.5
sg19
I122
sg20
g21
((dp647
I01
I122
stp648
Rp649
sg25
I2
sg26
F123.0
sbs(g8
g91
tp650
g0
(g14
g2
Ntp651
Rp652
(dp653
g18
F0.5
sg19
I122
sg20
g21
((dp654
I01
I122
stp655
Rp656
sg25
I2
sg26
F123.0
sbs(g8
g235
tp657
g0
(g14
g2
Ntp658
Rp659
(dp660
g18
F0.5
sg19
I122
sg20
g21
((dp661
I01
I122
stp662
Rp663
sg25
I2
sg26
F123.0
sbs(g9
g281
tp664
g0
(g14
g2
Ntp665
Rp666
(dp667
g18
F0.5
sg19
I878
sg20
g21
((dp668
I00
I2
sI01
I876
stp669
Rp670
sg25
I2
sg26
F879.0
sbs(g9
g452
tp671
g0
(g14
g2
Ntp672
Rp673
(dp674
g18
F0.5
sg19
I878
sg20
g21
((dp675
I00
I4
sI01
I874
stp676
Rp677
sg25
I2
sg26
F879.0
sbs(g9
g289
tp678
g0
(g14
g2
Ntp679
Rp680
(dp681
g18
F0.5
sg19
I878
sg20
g21
((dp682
I00
I229
sI01
I649
stp683
Rp684
sg25
I2
sg26
F879.0
sbs(g9
g297
tp685
g0
(g14
g2
Ntp686
Rp687
(dp688
g18
F0.5
sg19
I878
sg20
g21
((dp689
I00
I133
sI01
I745
stp690
Rp691
sg25
I2
sg26
F879.0
sbs(g9
g243
tp692
g0
(g14
g2
Ntp693
Rp694
(dp695
g18
F0.5
sg19
I878
sg20
g21
((dp696
I00
I8
sI01
I870
stp697
Rp698
sg25
I2
sg26
F879.0
sbs(g8
g320
tp699
g0
(g14
g2
Ntp700
Rp701
(dp702
g18
F0.5
sg19
I122
sg20
g21
((dp703
I01
I122
stp704
Rp705
sg25
I2
sg26
F123.0
sbs(g8
g312
tp706
g0
(g14
g2
Ntp707
Rp708
(dp709
g18
F0.5
sg19
I122
sg20
g21
((dp710
I01
I122
stp711
Rp712
sg25
I2
sg26
F123.0
sbs(g9
g358
tp713
g0
(g14
g2
Ntp714
Rp715
(dp716
g18
F0.5
sg19
I878
sg20
g21
((dp717
I00
I878
stp718
Rp719
sg25
I1
sg26
F878.5
sbs(g9
g27
tp720
g0
(g14
g2
Ntp721
Rp722
(dp723
g18
F0.5
sg19
I878
sg20
g21
((dp724
I00
I6
sI01
I872
stp725
Rp726
sg25
I2
sg26
F879.0
sbs(g8
g273
tp727
g0
(g14
g2
Ntp728
Rp729
(dp730
g18
F0.5
sg19
I122
sg20
g21
((dp731
I00
I122
stp732
Rp733
sg25
I1
sg26
F122.5
sbs(g9
g389
tp734
g0
(g14
g2
Ntp735
Rp736
(dp737
g18
F0.5
sg19
I878
sg20
g21
((dp738
I01
I878
stp739
Rp740
sg25
I1
sg26
F878.5
sbs(g8
g397
tp741
g0
(g14
g2
Ntp742
Rp743
(dp744
g18
F0.5
sg19
I122
sg20
g21
((dp745
I01
I122
stp746
Rp747
sg25
I2
sg26
F123.0
sbs(g8
g428
tp748
g0
(g14
g2
Ntp749
Rp750
(dp751
g18
F0.5
sg19
I122
sg20
g21
((dp752
I01
I122
stp753
Rp754
sg25
I2
sg26
F123.0
sbs(g9
g436
tp755
g0
(g14
g2
Ntp756
Rp757
(dp758
g18
F0.5
sg19
I878
sg20
g21
((dp759
I00
I29
sI01
I849
stp760
Rp761
sg25
I2
sg26
F879.0
sbs(g9
g444
tp762
g0
(g14
g2
Ntp763
Rp764
(dp765
g18
F0.5
sg19
I878
sg20
g21
((dp766
I01
I878
stp767
Rp768
sg25
I1
sg26
F878.5
sbssS'_label_probdist'
p769
g0
(g14
g2
Ntp770
Rp771
(dp772
g18
F0.5
sg19
I1000
sg20
g21
((dp773
g9
I878
sg8
I122
stp774
Rp775
sg25
I2
sg26
F1001.0
sbsb.